; Function Attrs: mustprogress uwtable
define void @_ZN5Ipopt25ExpandedMultiVectorMatrix9SetVectorEiNS_8SmartPtrIKNS_6VectorEEE(ptr noundef nonnull align 8 dereferenceable(104) %0, i32 noundef %1, ptr noundef readonly captures(none) %2) local_unnamed_addr #0 align 2 {
  %4 = getelementptr inbounds nuw i8, ptr %0, i64 80
  %5 = sext i32 %1 to i64
  %6 = load ptr, ptr %4, align 8, !tbaa !35
  %7 = getelementptr inbounds nuw %"class.Ipopt::SmartPtr.7", ptr %6, i64 %5
  %8 = load ptr, ptr %2, align 8, !tbaa !36
  %.not.i.i.i = icmp eq ptr %8, null
  br i1 %.not.i.i.i, label %13, label %9

9:                                                ; preds = %3
  %10 = getelementptr inbounds nuw i8, ptr %8, i64 8
  %11 = load i32, ptr %10, align 8, !tbaa !3
  %12 = add nsw i32 %11, 1
  store i32 %12, ptr %10, align 8, !tbaa !3
  br label %13

13:                                               ; preds = %9, %3
  %14 = load ptr, ptr %7, align 8, !tbaa !36
  %.not.i.i.i.i = icmp eq ptr %14, null
  br i1 %.not.i.i.i.i, label %_ZN5Ipopt8SmartPtrIKNS_6VectorEEaSERKS3_.exit, label %15

15:                                               ; preds = %13
  %16 = getelementptr inbounds nuw i8, ptr %14, i64 8
  %17 = load i32, ptr %16, align 8, !tbaa !3
  %18 = add nsw i32 %17, -1
  store i32 %18, ptr %16, align 8, !tbaa !3
  %19 = icmp eq i32 %18, 0
  br i1 %19, label %20, label %_ZN5Ipopt8SmartPtrIKNS_6VectorEEaSERKS3_.exit

20:                                               ; preds = %15
  %21 = load ptr, ptr %14, align 8, !tbaa !8
  %22 = getelementptr inbounds nuw i8, ptr %21, i64 8
  %23 = load ptr, ptr %22, align 8
  tail call void %23(ptr noundef nonnull align 8 dereferenceable(205) %14) #23
  br label %_ZN5Ipopt8SmartPtrIKNS_6VectorEEaSERKS3_.exit

_ZN5Ipopt8SmartPtrIKNS_6VectorEEaSERKS3_.exit:    ; preds = %13, %15, %20
  store ptr %8, ptr %7, align 8, !tbaa !36
  tail call void @_ZN5Ipopt12TaggedObject13ObjectChangedEv(ptr noundef nonnull align 8 dereferenceable(56) %0)
  ret void
}